target datalayout = "e-m:e-p270:32:32-p271:32:32-p272:64:64-i64:64-i128:128-f80:128-n8:16:32:64-S128"
target triple = "x86_64-pc-linux-gnu"

%"class.sls::context" = type <{ ptr, ptr, %class.scoped_ptr_vector, %class.indexed_uint_set, %class.indexed_uint_set, %class.ref_vector, %class.svector, %class.params_ref, %class.vector.3, %class.svector.4, %class.svector.4, %class.indexed_uint_set, %class.random_gen, i8, i8, i8, i8, %class.ref_vector, %class.ref_vector, %class.ptr_vector.1, %"struct.sls::context::greater_depth", %"struct.sls::context::less_depth", %class.heap, %class.heap.8, %class.uint_set, %class.ref_vector, %"struct.sls::context::stats", [4 x i8], %class.ref_vector, i8, [7 x i8] }>
%class.scoped_ptr_vector = type { %class.ptr_vector }
%class.ptr_vector = type { %class.vector }
%class.vector = type { ptr }
%class.svector = type { %class.vector.0 }
%class.vector.0 = type { ptr }
%class.params_ref = type { ptr }
%class.vector.3 = type { ptr }
%class.svector.4 = type { %class.vector.5 }
%class.vector.5 = type { ptr }
%class.indexed_uint_set = type { i32, %class.svector, %class.svector }
%class.random_gen = type { i32 }
%class.ptr_vector.1 = type { %class.vector.2 }
%class.vector.2 = type { ptr }
%"struct.sls::context::greater_depth" = type { ptr }
%"struct.sls::context::less_depth" = type { ptr }
%class.heap = type { %"struct.sls::context::greater_depth", %class.svector.6, %class.svector.6 }
%class.svector.6 = type { %class.vector.7 }
%class.vector.7 = type { ptr }
%class.heap.8 = type { %"struct.sls::context::less_depth", %class.svector.6, %class.svector.6 }
%class.uint_set = type { %class.svector }
%"struct.sls::context::stats" = type { i32, i32, i32 }
%class.ref_vector = type { %class.ref_vector_core }
%class.ref_vector_core = type { %class.ref_manager_wrapper, %class.ptr_vector.1 }
%class.ref_manager_wrapper = type { ptr }
%class.ast = type { i32, i32, i32, i32 }

; Function Attrs: mustprogress nounwind uwtable
define linkonce_odr hidden void @_ZN3ast7inc_refEv(ptr noundef nonnull align 4 dereferenceable(16) %0) #5 comdat align 2 {
  %2 = alloca ptr, align 8
  store ptr %0, ptr %2, align 8, !tbaa !154
  %3 = load ptr, ptr %2, align 8
  %4 = getelementptr inbounds nuw %class.ast, ptr %3, i32 0, i32 2
  %5 = load i32, ptr %4, align 4, !tbaa !331
  %6 = add i32 %5, 1
  store i32 %6, ptr %4, align 4, !tbaa !331
  ret void
}

; Function Attrs: mustprogress uwtable
define linkonce_odr hidden void @_ZN11ast_manager7inc_refEP3ast(ptr noundef nonnull align 8 dereferenceable(976) %0, ptr noundef %1) #4 comdat align 2 {
  %3 = alloca ptr, align 8
  %4 = alloca ptr, align 8
  store ptr %0, ptr %3, align 8, !tbaa !12
  store ptr %1, ptr %4, align 8, !tbaa !154
  %5 = load ptr, ptr %4, align 8, !tbaa !154
  %6 = icmp ne ptr %5, null
  br i1 %6, label %7, label %9

7:                                                ; preds = %2
  %8 = load ptr, ptr %4, align 8, !tbaa !154
  call void @_ZN3ast7inc_refEv(ptr noundef nonnull align 4 dereferenceable(16) %8)
  br label %9

9:                                                ; preds = %7, %2
  ret void
}

; Function Attrs: mustprogress uwtable
define linkonce_odr hidden void @_ZN19ref_manager_wrapperI4expr11ast_managerE7inc_refEPS0_(ptr noundef nonnull align 8 dereferenceable(8) %0, ptr noundef %1) #4 comdat align 2 {
  %3 = alloca ptr, align 8
  %4 = alloca ptr, align 8
  store ptr %0, ptr %3, align 8, !tbaa !329
  store ptr %1, ptr %4, align 8, !tbaa !143
  %5 = load ptr, ptr %3, align 8
  %6 = getelementptr inbounds nuw %class.ref_manager_wrapper, ptr %5, i32 0, i32 0
  %7 = load ptr, ptr %6, align 8, !tbaa !311
  %8 = load ptr, ptr %4, align 8, !tbaa !143
  call void @_ZN11ast_manager7inc_refEP3ast(ptr noundef nonnull align 8 dereferenceable(976) %7, ptr noundef %8)
  ret void
}

; Function Attrs: mustprogress uwtable
define linkonce_odr hidden noundef nonnull align 8 dereferenceable(8) ptr @_ZN6vectorIP4exprLb0EjE9push_backERKS1_(ptr noundef nonnull align 8 dereferenceable(8) %0, ptr noundef nonnull align 8 dereferenceable(8) %1) #4 comdat align 2 {
  %3 = alloca ptr, align 8
  %4 = alloca ptr, align 8
  store ptr %0, ptr %3, align 8, !tbaa !95
  store ptr %1, ptr %4, align 8, !tbaa !173
  %5 = load ptr, ptr %3, align 8
  %6 = getelementptr inbounds nuw %class.vector.2, ptr %5, i32 0, i32 0
  %7 = load ptr, ptr %6, align 8, !tbaa !195
  %8 = icmp eq ptr %7, null
  br i1 %8, label %19, label %9

9:                                                ; preds = %2
  %10 = getelementptr inbounds nuw %class.vector.2, ptr %5, i32 0, i32 0
  %11 = load ptr, ptr %10, align 8, !tbaa !195
  %12 = getelementptr inbounds i32, ptr %11, i64 -1
  %13 = load i32, ptr %12, align 4, !tbaa !74
  %14 = getelementptr inbounds nuw %class.vector.2, ptr %5, i32 0, i32 0
  %15 = load ptr, ptr %14, align 8, !tbaa !195
  %16 = getelementptr inbounds i32, ptr %15, i64 -2
  %17 = load i32, ptr %16, align 4, !tbaa !74
  %18 = icmp eq i32 %13, %17
  br i1 %18, label %19, label %20

19:                                               ; preds = %9, %2
  call void @_ZN6vectorIP4exprLb0EjE13expand_vectorEv(ptr noundef nonnull align 8 dereferenceable(8) %5)
  br label %20

20:                                               ; preds = %19, %9
  %21 = getelementptr inbounds nuw %class.vector.2, ptr %5, i32 0, i32 0
  %22 = load ptr, ptr %21, align 8, !tbaa !195
  %23 = getelementptr inbounds nuw %class.vector.2, ptr %5, i32 0, i32 0
  %24 = load ptr, ptr %23, align 8, !tbaa !195
  %25 = getelementptr inbounds i32, ptr %24, i64 -1
  %26 = load i32, ptr %25, align 4, !tbaa !74
  %27 = zext i32 %26 to i64
  %28 = getelementptr inbounds nuw ptr, ptr %22, i64 %27
  %29 = load ptr, ptr %4, align 8, !tbaa !173
  %30 = load ptr, ptr %29, align 8, !tbaa !143
  store ptr %30, ptr %28, align 8, !tbaa !143
  %31 = getelementptr inbounds nuw %class.vector.2, ptr %5, i32 0, i32 0
  %32 = load ptr, ptr %31, align 8, !tbaa !195
  %33 = getelementptr inbounds i32, ptr %32, i64 -1
  %34 = load i32, ptr %33, align 4, !tbaa !74
  %35 = add i32 %34, 1
  store i32 %35, ptr %33, align 4, !tbaa !74
  ret ptr %5
}

; Function Attrs: mustprogress uwtable
define linkonce_odr hidden void @_ZN15ref_vector_coreI4expr19ref_manager_wrapperIS0_11ast_managerEE7inc_refEPS0_(ptr noundef nonnull align 8 dereferenceable(16) %0, ptr noundef %1) #4 comdat align 2 {
  %3 = alloca ptr, align 8
  %4 = alloca ptr, align 8
  store ptr %0, ptr %3, align 8, !tbaa !93
  store ptr %1, ptr %4, align 8, !tbaa !143
  %5 = load ptr, ptr %3, align 8
  %6 = load ptr, ptr %4, align 8, !tbaa !143
  call void @_ZN19ref_manager_wrapperI4expr11ast_managerE7inc_refEPS0_(ptr noundef nonnull align 8 dereferenceable(8) %5, ptr noundef %6)
  ret void
}

; Function Attrs: mustprogress uwtable
define linkonce_odr hidden noundef nonnull align 8 dereferenceable(16) ptr @_ZN15ref_vector_coreI4expr19ref_manager_wrapperIS0_11ast_managerEE9push_backEPS0_(ptr noundef nonnull align 8 dereferenceable(16) %0, ptr noundef %1) #4 comdat align 2 {
  %3 = alloca ptr, align 8
  %4 = alloca ptr, align 8
  store ptr %0, ptr %3, align 8, !tbaa !93
  store ptr %1, ptr %4, align 8, !tbaa !143
  %5 = load ptr, ptr %3, align 8
  %6 = load ptr, ptr %4, align 8, !tbaa !143
  call void @_ZN15ref_vector_coreI4expr19ref_manager_wrapperIS0_11ast_managerEE7inc_refEPS0_(ptr noundef nonnull align 8 dereferenceable(16) %5, ptr noundef %6)
  %7 = getelementptr inbounds nuw %class.ref_vector_core, ptr %5, i32 0, i32 1
  %8 = call noundef nonnull align 8 dereferenceable(8) ptr @_ZN6vectorIP4exprLb0EjE9push_backERKS1_(ptr noundef nonnull align 8 dereferenceable(8) %7, ptr noundef nonnull align 8 dereferenceable(8) %4)
  ret ptr %5
}

; Function Attrs: mustprogress uwtable
define linkonce_odr hidden noundef ptr @_ZN11ast_manager6mk_notEP4expr(ptr noundef nonnull align 8 dereferenceable(976) %0, ptr noundef %1) #4 comdat align 2 {
  %3 = alloca ptr, align 8
  %4 = alloca ptr, align 8
  store ptr %0, ptr %3, align 8, !tbaa !12
  store ptr %1, ptr %4, align 8, !tbaa !143
  %5 = load ptr, ptr %3, align 8
  %6 = load ptr, ptr %4, align 8, !tbaa !143
  %7 = call noundef ptr @_ZN11ast_manager6mk_appEiiP4expr(ptr noundef nonnull align 8 dereferenceable(976) %5, i32 noundef 0, i32 noundef 8, ptr noundef %6)
  ret ptr %7
}

; Function Attrs: mustprogress uwtable
define hidden void @_ZN3sls7context20save_input_assertionEP4exprb(ptr noundef nonnull align 8 dereferenceable(321) %0, ptr noundef %1, i1 noundef zeroext %2) #4 align 2 {
  %4 = alloca ptr, align 8
  %5 = alloca ptr, align 8
  %6 = alloca i8, align 1
  store ptr %0, ptr %4, align 8, !tbaa !8
  store ptr %1, ptr %5, align 8, !tbaa !143
  %7 = zext i1 %2 to i8
  store i8 %7, ptr %6, align 1, !tbaa !172
  %8 = load ptr, ptr %4, align 8
  %9 = getelementptr inbounds nuw %"class.sls::context", ptr %8, i32 0, i32 17
  %10 = load i8, ptr %6, align 1, !tbaa !172, !range !158, !noundef !159
  %11 = trunc i8 %10 to i1
  br i1 %11, label %12, label %17

12:                                               ; preds = %3
  %13 = getelementptr inbounds nuw %"class.sls::context", ptr %8, i32 0, i32 0
  %14 = load ptr, ptr %13, align 8, !tbaa !14
  %15 = load ptr, ptr %5, align 8, !tbaa !143
  %16 = call noundef ptr @_ZN11ast_manager6mk_notEP4expr(ptr noundef nonnull align 8 dereferenceable(976) %14, ptr noundef %15)
  br label %19

17:                                               ; preds = %3
  %18 = load ptr, ptr %5, align 8, !tbaa !143
  br label %19

19:                                               ; preds = %17, %12
  %20 = phi ptr [ %16, %12 ], [ %18, %17 ]
  %21 = call noundef nonnull align 8 dereferenceable(16) ptr @_ZN15ref_vector_coreI4expr19ref_manager_wrapperIS0_11ast_managerEE9push_backEPS0_(ptr noundef nonnull align 8 dereferenceable(16) %9, ptr noundef %20)
  ret void
}