; Function Attrs: mustprogress uwtable
define hidden void @_ZN3sls7context20save_input_assertionEP4exprb(ptr noundef nonnull align 8 dereferenceable(321) %0, ptr noundef %1, i1 noundef zeroext %2) local_unnamed_addr #4 align 2 {
  br i1 %2, label %4, label %7

4:                                                ; preds = %3
  %5 = load ptr, ptr %0, align 8, !tbaa !10
  %6 = tail call noundef ptr @_ZN11ast_manager6mk_appEiiP4expr(ptr noundef nonnull align 8 dereferenceable(976) %5, i32 noundef 0, i32 noundef 8, ptr noundef %1)
  br label %7

7:                                                ; preds = %3, %4
  %8 = phi ptr [ %6, %4 ], [ %1, %3 ]
  %.not.i.i.i.i = icmp eq ptr %8, null
  br i1 %.not.i.i.i.i, label %_ZN15ref_vector_coreI4expr19ref_manager_wrapperIS0_11ast_managerEE7inc_refEPS0_.exit.i, label %9

9:                                                ; preds = %7
  %10 = getelementptr inbounds nuw i8, ptr %8, i64 8
  %11 = load i32, ptr %10, align 4, !tbaa !64
  %12 = add i32 %11, 1
  store i32 %12, ptr %10, align 4, !tbaa !64
  br label %_ZN15ref_vector_coreI4expr19ref_manager_wrapperIS0_11ast_managerEE7inc_refEPS0_.exit.i

_ZN15ref_vector_coreI4expr19ref_manager_wrapperIS0_11ast_managerEE7inc_refEPS0_.exit.i: ; preds = %9, %7
  %13 = getelementptr inbounds nuw i8, ptr %0, i64 168
  %14 = load ptr, ptr %13, align 8, !tbaa !51
  %15 = icmp eq ptr %14, null
  br i1 %15, label %22, label %16

16:                                               ; preds = %_ZN15ref_vector_coreI4expr19ref_manager_wrapperIS0_11ast_managerEE7inc_refEPS0_.exit.i
  %17 = getelementptr inbounds i8, ptr %14, i64 -4
  %18 = load i32, ptr %17, align 4, !tbaa !58
  %19 = getelementptr inbounds i8, ptr %14, i64 -8
  %20 = load i32, ptr %19, align 4, !tbaa !58
  %21 = icmp eq i32 %18, %20
  br i1 %21, label %22, label %_ZN15ref_vector_coreI4expr19ref_manager_wrapperIS0_11ast_managerEE9push_backEPS0_.exit

22:                                               ; preds = %16, %_ZN15ref_vector_coreI4expr19ref_manager_wrapperIS0_11ast_managerEE7inc_refEPS0_.exit.i
  tail call void @_ZN6vectorIP4exprLb0EjE13expand_vectorEv(ptr noundef nonnull align 8 dereferenceable(8) %13)
  %.pre.i.i = load ptr, ptr %13, align 8, !tbaa !51
  %.phi.trans.insert.i.i = getelementptr inbounds i8, ptr %.pre.i.i, i64 -4
  %.pre2.i.i = load i32, ptr %.phi.trans.insert.i.i, align 4, !tbaa !58
  br label %_ZN15ref_vector_coreI4expr19ref_manager_wrapperIS0_11ast_managerEE9push_backEPS0_.exit

_ZN15ref_vector_coreI4expr19ref_manager_wrapperIS0_11ast_managerEE9push_backEPS0_.exit: ; preds = %16, %22
  %23 = phi i32 [ %.pre2.i.i, %22 ], [ %18, %16 ]
  %24 = phi ptr [ %.pre.i.i, %22 ], [ %14, %16 ]
  %25 = getelementptr inbounds i8, ptr %24, i64 -4
  %26 = zext i32 %23 to i64
  %27 = getelementptr inbounds nuw ptr, ptr %24, i64 %26
  store ptr %8, ptr %27, align 8, !tbaa !61
  %28 = add i32 %23, 1
  store i32 %28, ptr %25, align 4, !tbaa !58
  ret void
}